	.file	"asm-offsets.c"
# GNU C (GCC) version 4.8.5 20150623 (Red Hat 4.8.5-39) (x86_64-redhat-linux)
#	compiled by GNU C version 4.8.5 20150623 (Red Hat 4.8.5-39), GMP version 6.0.0, MPFR version 3.1.1, MPC version 1.0.1
# GGC heuristics: --param ggc-min-expand=97 --param ggc-min-heapsize=126853
# options passed:  -nostdinc
# -I /home/chen/Serverless-LegoOS/kernel-3.11/arch/x86/include
# -I arch/x86/include/generated -I include
# -I /home/chen/Serverless-LegoOS/kernel-3.11/arch/x86/include/uapi
# -I arch/x86/include/generated/uapi
# -I /home/chen/Serverless-LegoOS/kernel-3.11/include/uapi
# -I include/generated/uapi -D __KERNEL__ -D CONFIG_AS_CFI=1
# -D CONFIG_AS_CFI_SIGNAL_FRAME=1 -D CONFIG_AS_CFI_SECTIONS=1
# -D CONFIG_AS_FXSAVEQ=1 -D CONFIG_AS_AVX=1 -D CONFIG_AS_AVX2=1
# -D CC_USING_FENTRY -D CC_HAVE_ASM_GOTO -D KBUILD_STR(s)=#s
# -D KBUILD_BASENAME=KBUILD_STR(asm_offsets)
# -D KBUILD_MODNAME=KBUILD_STR(asm_offsets)
# -isystem /usr/lib/gcc/x86_64-redhat-linux/4.8.5/include
# -include /home/chen/Serverless-LegoOS/kernel-3.11/include/linux/kconfig.h
# -MD arch/x86/kernel/.asm-offsets.s.d arch/x86/kernel/asm-offsets.c -m64
# -mpreferred-stack-boundary=3 -mtune=generic -mno-red-zone -mcmodel=kernel
# -maccumulate-outgoing-args -mno-sse -mno-mmx -mno-sse2 -mno-3dnow
# -mno-avx -mfentry -march=x86-64
# -auxbase-strip arch/x86/kernel/asm-offsets.s -g -O2 -Wall -Wundef
# -Wstrict-prototypes -Wno-trigraphs -Werror=implicit-function-declaration
# -Wno-format-security -Wno-sign-compare -Wframe-larger-than=2048
# -Wno-unused-but-set-variable -Wdeclaration-after-statement
# -Wno-pointer-sign -p -fno-strict-aliasing -fno-common
# -fno-delete-null-pointer-checks -funit-at-a-time -fstack-protector
# -fno-asynchronous-unwind-tables -fno-omit-frame-pointer
# -fno-optimize-sibling-calls -fno-inline-functions-called-once
# -fno-strict-overflow -fconserve-stack -fverbose-asm
# options enabled:  -faggressive-loop-optimizations -fauto-inc-dec
# -fbranch-count-reg -fcaller-saves -fcombine-stack-adjustments
# -fcompare-elim -fcprop-registers -fcrossjumping -fcse-follow-jumps
# -fdefer-pop -fdevirtualize -fdwarf2-cfi-asm -fearly-inlining
# -feliminate-unused-debug-types -fexpensive-optimizations
# -fforward-propagate -ffunction-cse -fgcse -fgcse-lm -fgnu-runtime
# -fgnu-unique -fguess-branch-probability -fhoist-adjacent-loads -fident
# -fif-conversion -fif-conversion2 -findirect-inlining -finline
# -finline-atomics -finline-small-functions -fipa-cp -fipa-profile
# -fipa-pure-const -fipa-reference -fipa-sra -fira-hoist-pressure
# -fira-share-save-slots -fira-share-spill-slots -fivopts
# -fkeep-static-consts -fleading-underscore -fmath-errno -fmerge-constants
# -fmerge-debug-strings -fmove-loop-invariants -foptimize-register-move
# -foptimize-strlen -fpartial-inlining -fpeephole -fpeephole2
# -fprefetch-loop-arrays -fprofile -free -freg-struct-return -fregmove
# -freorder-blocks -freorder-functions -frerun-cse-after-loop
# -fsched-critical-path-heuristic -fsched-dep-count-heuristic
# -fsched-group-heuristic -fsched-interblock -fsched-last-insn-heuristic
# -fsched-rank-heuristic -fsched-spec -fsched-spec-insn-heuristic
# -fsched-stalled-insns-dep -fschedule-insns2 -fshow-column -fshrink-wrap
# -fsigned-zeros -fsplit-ivs-in-unroller -fsplit-wide-types
# -fstack-protector -fstrict-volatile-bitfields -fsync-libcalls
# -fthread-jumps -ftoplevel-reorder -ftrapping-math -ftree-bit-ccp
# -ftree-builtin-call-dce -ftree-ccp -ftree-ch -ftree-coalesce-vars
# -ftree-copy-prop -ftree-copyrename -ftree-cselim -ftree-dce
# -ftree-dominator-opts -ftree-dse -ftree-forwprop -ftree-fre
# -ftree-loop-if-convert -ftree-loop-im -ftree-loop-ivcanon
# -ftree-loop-optimize -ftree-parallelize-loops= -ftree-phiprop -ftree-pre
# -ftree-pta -ftree-reassoc -ftree-scev-cprop -ftree-sink
# -ftree-slp-vectorize -ftree-slsr -ftree-sra -ftree-switch-conversion
# -ftree-tail-merge -ftree-ter -ftree-vect-loop-version -ftree-vrp
# -funit-at-a-time -fvar-tracking -fvar-tracking-assignments -fverbose-asm
# -fzero-initialized-in-bss -m128bit-long-double -m64 -m80387
# -maccumulate-outgoing-args -malign-stringops -mfancy-math-387 -mfentry
# -mfp-ret-in-387 -mfxsr -mglibc -mieee-fp -mlong-double-80 -mno-red-zone
# -mno-sse4 -mpush-args -mtls-direct-seg-refs

	.text
.Ltext0:
	.cfi_sections	.debug_frame
	.section	.text.startup,"ax",@progbits
	.p2align 4,,15
	.globl	main
	.type	main, @function
main:
.LFB2099:
	.file 1 "arch/x86/kernel/asm-offsets_64.c"
	.loc 1 19 0
	.cfi_startproc
	call	__fentry__
	pushq	%rbp	#
	.cfi_def_cfa_offset 16
	.cfi_offset 6, -16
	movq	%rsp, %rbp	#,
	.cfi_def_cfa_register 6
	.loc 1 21 0
#APP
# 21 "arch/x86/kernel/asm-offsets_64.c" 1
	
->PV_IRQ_adjust_exception_frame $48 offsetof(struct pv_irq_ops, adjust_exception_frame)	#
# 0 "" 2
	.loc 1 22 0
# 22 "arch/x86/kernel/asm-offsets_64.c" 1
	
->PV_CPU_usergs_sysret32 $280 offsetof(struct pv_cpu_ops, usergs_sysret32)	#
# 0 "" 2
	.loc 1 23 0
# 23 "arch/x86/kernel/asm-offsets_64.c" 1
	
->PV_CPU_usergs_sysret64 $272 offsetof(struct pv_cpu_ops, usergs_sysret64)	#
# 0 "" 2
	.loc 1 24 0
# 24 "arch/x86/kernel/asm-offsets_64.c" 1
	
->PV_CPU_swapgs $296 offsetof(struct pv_cpu_ops, swapgs)	#
# 0 "" 2
	.loc 1 25 0
# 25 "arch/x86/kernel/asm-offsets_64.c" 1
	
->
# 0 "" 2
	.loc 1 29 0
# 29 "arch/x86/kernel/asm-offsets_64.c" 1
	
->TI_sysenter_return $88 offsetof(struct thread_info, sysenter_return)	#
# 0 "" 2
	.loc 1 30 0
# 30 "arch/x86/kernel/asm-offsets_64.c" 1
	
->
# 0 "" 2
	.loc 1 33 0
# 33 "arch/x86/kernel/asm-offsets_64.c" 1
	
->IA32_SIGCONTEXT_ax $44 offsetof(struct sigcontext_ia32, ax)	#
# 0 "" 2
	.loc 1 34 0
# 34 "arch/x86/kernel/asm-offsets_64.c" 1
	
->IA32_SIGCONTEXT_bx $32 offsetof(struct sigcontext_ia32, bx)	#
# 0 "" 2
	.loc 1 35 0
# 35 "arch/x86/kernel/asm-offsets_64.c" 1
	
->IA32_SIGCONTEXT_cx $40 offsetof(struct sigcontext_ia32, cx)	#
# 0 "" 2
	.loc 1 36 0
# 36 "arch/x86/kernel/asm-offsets_64.c" 1
	
->IA32_SIGCONTEXT_dx $36 offsetof(struct sigcontext_ia32, dx)	#
# 0 "" 2
	.loc 1 37 0
# 37 "arch/x86/kernel/asm-offsets_64.c" 1
	
->IA32_SIGCONTEXT_si $20 offsetof(struct sigcontext_ia32, si)	#
# 0 "" 2
	.loc 1 38 0
# 38 "arch/x86/kernel/asm-offsets_64.c" 1
	
->IA32_SIGCONTEXT_di $16 offsetof(struct sigcontext_ia32, di)	#
# 0 "" 2
	.loc 1 39 0
# 39 "arch/x86/kernel/asm-offsets_64.c" 1
	
->IA32_SIGCONTEXT_bp $24 offsetof(struct sigcontext_ia32, bp)	#
# 0 "" 2
	.loc 1 40 0
# 40 "arch/x86/kernel/asm-offsets_64.c" 1
	
->IA32_SIGCONTEXT_sp $28 offsetof(struct sigcontext_ia32, sp)	#
# 0 "" 2
	.loc 1 41 0
# 41 "arch/x86/kernel/asm-offsets_64.c" 1
	
->IA32_SIGCONTEXT_ip $56 offsetof(struct sigcontext_ia32, ip)	#
# 0 "" 2
	.loc 1 42 0
# 42 "arch/x86/kernel/asm-offsets_64.c" 1
	
->
# 0 "" 2
	.loc 1 45 0
# 45 "arch/x86/kernel/asm-offsets_64.c" 1
	
->IA32_RT_SIGFRAME_sigcontext $164 offsetof(struct rt_sigframe_ia32, uc.uc_mcontext)	#
# 0 "" 2
	.loc 1 46 0
# 46 "arch/x86/kernel/asm-offsets_64.c" 1
	
->
# 0 "" 2
	.loc 1 50 0
# 50 "arch/x86/kernel/asm-offsets_64.c" 1
	
->pt_regs_bx $40 offsetof(struct pt_regs, bx)	#
# 0 "" 2
	.loc 1 51 0
# 51 "arch/x86/kernel/asm-offsets_64.c" 1
	
->pt_regs_bx $40 offsetof(struct pt_regs, bx)	#
# 0 "" 2
	.loc 1 52 0
# 52 "arch/x86/kernel/asm-offsets_64.c" 1
	
->pt_regs_cx $88 offsetof(struct pt_regs, cx)	#
# 0 "" 2
	.loc 1 53 0
# 53 "arch/x86/kernel/asm-offsets_64.c" 1
	
->pt_regs_dx $96 offsetof(struct pt_regs, dx)	#
# 0 "" 2
	.loc 1 54 0
# 54 "arch/x86/kernel/asm-offsets_64.c" 1
	
->pt_regs_sp $152 offsetof(struct pt_regs, sp)	#
# 0 "" 2
	.loc 1 55 0
# 55 "arch/x86/kernel/asm-offsets_64.c" 1
	
->pt_regs_bp $32 offsetof(struct pt_regs, bp)	#
# 0 "" 2
	.loc 1 56 0
# 56 "arch/x86/kernel/asm-offsets_64.c" 1
	
->pt_regs_si $104 offsetof(struct pt_regs, si)	#
# 0 "" 2
	.loc 1 57 0
# 57 "arch/x86/kernel/asm-offsets_64.c" 1
	
->pt_regs_di $112 offsetof(struct pt_regs, di)	#
# 0 "" 2
	.loc 1 58 0
# 58 "arch/x86/kernel/asm-offsets_64.c" 1
	
->pt_regs_r8 $72 offsetof(struct pt_regs, r8)	#
# 0 "" 2
	.loc 1 59 0
# 59 "arch/x86/kernel/asm-offsets_64.c" 1
	
->pt_regs_r9 $64 offsetof(struct pt_regs, r9)	#
# 0 "" 2
	.loc 1 60 0
# 60 "arch/x86/kernel/asm-offsets_64.c" 1
	
->pt_regs_r10 $56 offsetof(struct pt_regs, r10)	#
# 0 "" 2
	.loc 1 61 0
# 61 "arch/x86/kernel/asm-offsets_64.c" 1
	
->pt_regs_r11 $48 offsetof(struct pt_regs, r11)	#
# 0 "" 2
	.loc 1 62 0
# 62 "arch/x86/kernel/asm-offsets_64.c" 1
	
->pt_regs_r12 $24 offsetof(struct pt_regs, r12)	#
# 0 "" 2
	.loc 1 63 0
# 63 "arch/x86/kernel/asm-offsets_64.c" 1
	
->pt_regs_r13 $16 offsetof(struct pt_regs, r13)	#
# 0 "" 2
	.loc 1 64 0
# 64 "arch/x86/kernel/asm-offsets_64.c" 1
	
->pt_regs_r14 $8 offsetof(struct pt_regs, r14)	#
# 0 "" 2
	.loc 1 65 0
# 65 "arch/x86/kernel/asm-offsets_64.c" 1
	
->pt_regs_r15 $0 offsetof(struct pt_regs, r15)	#
# 0 "" 2
	.loc 1 66 0
# 66 "arch/x86/kernel/asm-offsets_64.c" 1
	
->pt_regs_flags $144 offsetof(struct pt_regs, flags)	#
# 0 "" 2
	.loc 1 67 0
# 67 "arch/x86/kernel/asm-offsets_64.c" 1
	
->
# 0 "" 2
	.loc 1 71 0
# 71 "arch/x86/kernel/asm-offsets_64.c" 1
	
->saved_context_cr0 $202 offsetof(struct saved_context, cr0)	#
# 0 "" 2
	.loc 1 72 0
# 72 "arch/x86/kernel/asm-offsets_64.c" 1
	
->saved_context_cr2 $210 offsetof(struct saved_context, cr2)	#
# 0 "" 2
	.loc 1 73 0
# 73 "arch/x86/kernel/asm-offsets_64.c" 1
	
->saved_context_cr3 $218 offsetof(struct saved_context, cr3)	#
# 0 "" 2
	.loc 1 74 0
# 74 "arch/x86/kernel/asm-offsets_64.c" 1
	
->saved_context_cr4 $226 offsetof(struct saved_context, cr4)	#
# 0 "" 2
	.loc 1 75 0
# 75 "arch/x86/kernel/asm-offsets_64.c" 1
	
->saved_context_cr8 $234 offsetof(struct saved_context, cr8)	#
# 0 "" 2
	.loc 1 76 0
# 76 "arch/x86/kernel/asm-offsets_64.c" 1
	
->saved_context_gdt_desc $261 offsetof(struct saved_context, gdt_desc)	#
# 0 "" 2
	.loc 1 77 0
# 77 "arch/x86/kernel/asm-offsets_64.c" 1
	
->
# 0 "" 2
	.loc 1 80 0
# 80 "arch/x86/kernel/asm-offsets_64.c" 1
	
->TSS_ist $36 offsetof(struct tss_struct, x86_tss.ist)	#
# 0 "" 2
	.loc 1 81 0
# 81 "arch/x86/kernel/asm-offsets_64.c" 1
	
->
# 0 "" 2
	.loc 1 83 0
# 83 "arch/x86/kernel/asm-offsets_64.c" 1
	
->__NR_syscall_max $600 sizeof(syscalls_64) - 1	#
# 0 "" 2
	.loc 1 84 0
# 84 "arch/x86/kernel/asm-offsets_64.c" 1
	
->NR_syscalls $601 sizeof(syscalls_64)	#
# 0 "" 2
	.loc 1 86 0
# 86 "arch/x86/kernel/asm-offsets_64.c" 1
	
->__NR_ia32_syscall_max $350 sizeof(syscalls_ia32) - 1	#
# 0 "" 2
	.loc 1 87 0
# 87 "arch/x86/kernel/asm-offsets_64.c" 1
	
->IA32_NR_syscalls $351 sizeof(syscalls_ia32)	#
# 0 "" 2
	.loc 1 90 0
#NO_APP
	xorl	%eax, %eax	#
	popq	%rbp	#
	.cfi_restore 6
	.cfi_def_cfa 7, 8
	ret
	.cfi_endproc
.LFE2099:
	.size	main, .-main
	.text
	.p2align 4,,15
	.globl	common
	.type	common, @function
common:
.LFB2100:
	.file 2 "arch/x86/kernel/asm-offsets.c"
	.loc 2 30 0
	.cfi_startproc
	call	__fentry__
	pushq	%rbp	#
	.cfi_def_cfa_offset 16
	.cfi_offset 6, -16
	movq	%rsp, %rbp	#,
	.cfi_def_cfa_register 6
	.loc 2 31 0
#APP
# 31 "arch/x86/kernel/asm-offsets.c" 1
	
->
# 0 "" 2
	.loc 2 32 0
# 32 "arch/x86/kernel/asm-offsets.c" 1
	
->TI_flags $16 offsetof(struct thread_info, flags)	#
# 0 "" 2
	.loc 2 33 0
# 33 "arch/x86/kernel/asm-offsets.c" 1
	
->TI_status $20 offsetof(struct thread_info, status)	#
# 0 "" 2
	.loc 2 34 0
# 34 "arch/x86/kernel/asm-offsets.c" 1
	
->TI_addr_limit $32 offsetof(struct thread_info, addr_limit)	#
# 0 "" 2
	.loc 2 35 0
# 35 "arch/x86/kernel/asm-offsets.c" 1
	
->TI_preempt_count $28 offsetof(struct thread_info, preempt_count)	#
# 0 "" 2
	.loc 2 37 0
# 37 "arch/x86/kernel/asm-offsets.c" 1
	
->
# 0 "" 2
	.loc 2 38 0
# 38 "arch/x86/kernel/asm-offsets.c" 1
	
->crypto_tfm_ctx_offset $88 offsetof(struct crypto_tfm, __crt_ctx)	#
# 0 "" 2
	.loc 2 40 0
# 40 "arch/x86/kernel/asm-offsets.c" 1
	
->
# 0 "" 2
	.loc 2 41 0
# 41 "arch/x86/kernel/asm-offsets.c" 1
	
->pbe_address $0 offsetof(struct pbe, address)	#
# 0 "" 2
	.loc 2 42 0
# 42 "arch/x86/kernel/asm-offsets.c" 1
	
->pbe_orig_address $8 offsetof(struct pbe, orig_address)	#
# 0 "" 2
	.loc 2 43 0
# 43 "arch/x86/kernel/asm-offsets.c" 1
	
->pbe_next $16 offsetof(struct pbe, next)	#
# 0 "" 2
	.loc 2 46 0
# 46 "arch/x86/kernel/asm-offsets.c" 1
	
->
# 0 "" 2
	.loc 2 47 0
# 47 "arch/x86/kernel/asm-offsets.c" 1
	
->PARAVIRT_enabled $12 offsetof(struct pv_info, paravirt_enabled)	#
# 0 "" 2
	.loc 2 48 0
# 48 "arch/x86/kernel/asm-offsets.c" 1
	
->PARAVIRT_PATCH_pv_cpu_ops $32 offsetof(struct paravirt_patch_template, pv_cpu_ops)	#
# 0 "" 2
	.loc 2 49 0
# 49 "arch/x86/kernel/asm-offsets.c" 1
	
->PARAVIRT_PATCH_pv_irq_ops $352 offsetof(struct paravirt_patch_template, pv_irq_ops)	#
# 0 "" 2
	.loc 2 50 0
# 50 "arch/x86/kernel/asm-offsets.c" 1
	
->PV_IRQ_irq_disable $16 offsetof(struct pv_irq_ops, irq_disable)	#
# 0 "" 2
	.loc 2 51 0
# 51 "arch/x86/kernel/asm-offsets.c" 1
	
->PV_IRQ_irq_enable $24 offsetof(struct pv_irq_ops, irq_enable)	#
# 0 "" 2
	.loc 2 52 0
# 52 "arch/x86/kernel/asm-offsets.c" 1
	
->PV_CPU_iret $288 offsetof(struct pv_cpu_ops, iret)	#
# 0 "" 2
	.loc 2 53 0
# 53 "arch/x86/kernel/asm-offsets.c" 1
	
->PV_CPU_irq_enable_sysexit $264 offsetof(struct pv_cpu_ops, irq_enable_sysexit)	#
# 0 "" 2
	.loc 2 54 0
# 54 "arch/x86/kernel/asm-offsets.c" 1
	
->PV_CPU_read_cr0 $24 offsetof(struct pv_cpu_ops, read_cr0)	#
# 0 "" 2
	.loc 2 55 0
# 55 "arch/x86/kernel/asm-offsets.c" 1
	
->PV_MMU_read_cr2 $0 offsetof(struct pv_mmu_ops, read_cr2)	#
# 0 "" 2
	.loc 2 59 0
# 59 "arch/x86/kernel/asm-offsets.c" 1
	
->
# 0 "" 2
	.loc 2 60 0
# 60 "arch/x86/kernel/asm-offsets.c" 1
	
->XEN_vcpu_info_mask $1 offsetof(struct vcpu_info, evtchn_upcall_mask)	#
# 0 "" 2
	.loc 2 61 0
# 61 "arch/x86/kernel/asm-offsets.c" 1
	
->XEN_vcpu_info_pending $0 offsetof(struct vcpu_info, evtchn_upcall_pending)	#
# 0 "" 2
	.loc 2 64 0
# 64 "arch/x86/kernel/asm-offsets.c" 1
	
->
# 0 "" 2
	.loc 2 65 0
# 65 "arch/x86/kernel/asm-offsets.c" 1
	
->BP_scratch $484 offsetof(struct boot_params, scratch)	#
# 0 "" 2
	.loc 2 66 0
# 66 "arch/x86/kernel/asm-offsets.c" 1
	
->BP_loadflags $529 offsetof(struct boot_params, hdr.loadflags)	#
# 0 "" 2
	.loc 2 67 0
# 67 "arch/x86/kernel/asm-offsets.c" 1
	
->BP_hardware_subarch $572 offsetof(struct boot_params, hdr.hardware_subarch)	#
# 0 "" 2
	.loc 2 68 0
# 68 "arch/x86/kernel/asm-offsets.c" 1
	
->BP_version $518 offsetof(struct boot_params, hdr.version)	#
# 0 "" 2
	.loc 2 69 0
# 69 "arch/x86/kernel/asm-offsets.c" 1
	
->BP_kernel_alignment $560 offsetof(struct boot_params, hdr.kernel_alignment)	#
# 0 "" 2
	.loc 2 70 0
# 70 "arch/x86/kernel/asm-offsets.c" 1
	
->BP_pref_address $600 offsetof(struct boot_params, hdr.pref_address)	#
# 0 "" 2
	.loc 2 71 0
# 71 "arch/x86/kernel/asm-offsets.c" 1
	
->BP_code32_start $532 offsetof(struct boot_params, hdr.code32_start)	#
# 0 "" 2
	.loc 2 73 0
# 73 "arch/x86/kernel/asm-offsets.c" 1
	
->
# 0 "" 2
	.loc 2 74 0
# 74 "arch/x86/kernel/asm-offsets.c" 1
	
->PTREGS_SIZE $168 sizeof(struct pt_regs)	#
# 0 "" 2
	.loc 2 75 0
#NO_APP
	popq	%rbp	#
	.cfi_restore 6
	.cfi_def_cfa 7, 8
	ret
	.cfi_endproc
.LFE2100:
	.size	common, .-common
.Letext0:
	.file 3 "include/uapi/asm-generic/int-ll64.h"
	.file 4 "include/asm-generic/int-ll64.h"
	.file 5 "/home/chen/Serverless-LegoOS/kernel-3.11/include/uapi/asm-generic/posix_types.h"
	.file 6 "include/linux/types.h"
	.file 7 "/home/chen/Serverless-LegoOS/kernel-3.11/arch/x86/include/asm/ptrace.h"
	.file 8 "/home/chen/Serverless-LegoOS/kernel-3.11/arch/x86/include/asm/desc_defs.h"
	.file 9 "/home/chen/Serverless-LegoOS/kernel-3.11/arch/x86/include/asm/pgtable_64_types.h"
	.file 10 "/home/chen/Serverless-LegoOS/kernel-3.11/arch/x86/include/asm/pgtable_types.h"
	.file 11 "include/linux/mm_types.h"
	.file 12 "/home/chen/Serverless-LegoOS/kernel-3.11/arch/x86/include/asm/paravirt_types.h"
	.file 13 "/home/chen/Serverless-LegoOS/kernel-3.11/arch/x86/include/asm/processor.h"
	.file 14 "include/linux/sched.h"
	.file 15 "include/linux/cpumask.h"
	.file 16 "/home/chen/Serverless-LegoOS/kernel-3.11/arch/x86/include/asm/spinlock_types.h"
	.file 17 "/home/chen/Serverless-LegoOS/kernel-3.11/arch/x86/include/asm/vm86.h"
	.file 18 "/home/chen/Serverless-LegoOS/kernel-3.11/arch/x86/include/asm/math_emu.h"
	.file 19 "include/asm-generic/atomic-long.h"
	.file 20 "include/uapi/linux/time.h"
	.file 21 "/home/chen/Serverless-LegoOS/kernel-3.11/arch/x86/include/asm/rwlock.h"
	.file 22 "include/linux/spinlock_types.h"
	.file 23 "include/linux/rwlock_types.h"
	.file 24 "include/linux/wait.h"
	.file 25 "include/linux/seqlock.h"
	.file 26 "include/linux/nodemask.h"
	.file 27 "include/linux/mmzone.h"
	.file 28 "include/linux/mutex.h"
	.file 29 "include/linux/rwsem.h"
	.file 30 "include/linux/completion.h"
	.file 31 "include/linux/ktime.h"
	.file 32 "include/linux/workqueue.h"
	.file 33 "/home/chen/Serverless-LegoOS/kernel-3.11/arch/x86/include/asm/mpspec_def.h"
	.file 34 "include/linux/ioport.h"
	.file 35 "/home/chen/Serverless-LegoOS/kernel-3.11/arch/x86/include/asm/x86_init.h"
	.file 36 "include/linux/irq.h"
	.file 37 "/home/chen/Serverless-LegoOS/kernel-3.11/arch/x86/include/asm/io_apic.h"
	.file 38 "/home/chen/Serverless-LegoOS/kernel-3.11/arch/x86/include/asm/hw_irq.h"
	.file 39 "/home/chen/Serverless-LegoOS/kernel-3.11/arch/x86/include/asm/mpspec.h"
	.file 40 "/home/chen/Serverless-LegoOS/kernel-3.11/arch/x86/include/asm/mmu.h"
	.file 41 "include/linux/rbtree.h"
	.file 42 "/home/chen/Serverless-LegoOS/kernel-3.11/arch/x86/include/asm/apic.h"
	.file 43 "/home/chen/Serverless-LegoOS/kernel-3.11/arch/x86/include/asm/smp.h"
	.file 44 "include/linux/kobject_ns.h"
	.file 45 "include/linux/uidgid.h"
	.file 46 "include/linux/stat.h"
	.file 47 "include/linux/sysfs.h"
	.file 48 "include/linux/kobject.h"
	.file 49 "include/linux/fs.h"
	.file 50 "include/linux/kref.h"
	.file 51 "include/linux/slub_def.h"
	.file 52 "include/linux/capability.h"
	.file 53 "/home/chen/Serverless-LegoOS/kernel-3.11/arch/x86/include/asm/uprobes.h"
	.file 54 "include/linux/uprobes.h"
	.file 55 "include/linux/mm.h"
	.file 56 "include/asm-generic/cputime_nsecs.h"
	.file 57 "include/linux/sem.h"
	.file 58 "/home/chen/Serverless-LegoOS/kernel-3.11/arch/x86/include/asm/signal.h"
	.file 59 "/home/chen/Serverless-LegoOS/kernel-3.11/include/uapi/asm-generic/signal-defs.h"
	.file 60 "include/uapi/asm-generic/siginfo.h"
	.file 61 "include/linux/signal.h"
	.file 62 "include/linux/pid.h"
	.file 63 "include/linux/percpu_counter.h"
	.file 64 "include/linux/seccomp.h"
	.file 65 "include/linux/plist.h"
	.file 66 "include/uapi/linux/resource.h"
	.file 67 "include/linux/timerqueue.h"
	.file 68 "include/linux/hrtimer.h"
	.file 69 "include/linux/task_io_accounting.h"
	.file 70 "include/linux/key.h"
	.file 71 "include/linux/cred.h"
	.file 72 "include/linux/llist.h"
	.file 73 "/home/chen/Serverless-LegoOS/kernel-3.11/include/uapi/linux/taskstats.h"
	.file 74 "include/linux/swap.h"
	.file 75 "include/linux/cgroup.h"
	.file 76 "include/linux/compat.h"
	.file 77 "include/linux/idr.h"
	.file 78 "include/linux/xattr.h"
	.file 79 "include/linux/dcache.h"
	.file 80 "include/linux/list_bl.h"
	.file 81 "include/linux/lockref.h"
	.file 82 "include/linux/path.h"
	.file 83 "include/linux/radix-tree.h"
	.file 84 "/home/chen/Serverless-LegoOS/kernel-3.11/include/uapi/linux/fiemap.h"
	.file 85 "include/linux/shrinker.h"
	.file 86 "include/linux/migrate_mode.h"
	.file 87 "/home/chen/Serverless-LegoOS/kernel-3.11/include/uapi/linux/dqblk_xfs.h"
	.file 88 "include/linux/quota.h"
	.file 89 "include/linux/projid.h"
	.file 90 "include/uapi/linux/quota.h"
	.file 91 "include/uapi/linux/uio.h"
	.file 92 "include/linux/nfs_fs_i.h"
	.file 93 "include/linux/percpu-refcount.h"
	.file 94 "include/linux/vmstat.h"
	.file 95 "include/linux/suspend.h"
	.file 96 "/home/chen/Serverless-LegoOS/kernel-3.11/arch/x86/include/asm/compat.h"
	.file 97 "/home/chen/Serverless-LegoOS/kernel-3.11/arch/x86/include/asm/desc.h"
	.file 98 "/home/chen/Serverless-LegoOS/kernel-3.11/arch/x86/include/asm/vvar.h"
	.file 99 "/home/chen/Serverless-LegoOS/kernel-3.11/arch/x86/include/asm/page_types.h"
	.file 100 "include/linux/printk.h"
	.file 101 "include/linux/kernel.h"
	.file 102 "include/asm-generic/percpu.h"
	.file 103 "/home/chen/Serverless-LegoOS/kernel-3.11/arch/x86/include/asm/current.h"
	.file 104 "/home/chen/Serverless-LegoOS/kernel-3.11/arch/x86/include/asm/page_64.h"
	.file 105 "/home/chen/Serverless-LegoOS/kernel-3.11/arch/x86/include/asm/special_insns.h"
	.file 106 "/home/chen/Serverless-LegoOS/kernel-3.11/arch/x86/include/asm/thread_info.h"
	.file 107 "include/linux/time.h"
	.file 108 "include/linux/jiffies.h"
	.file 109 "include/linux/timer.h"
	.file 110 "/home/chen/Serverless-LegoOS/kernel-3.11/arch/x86/include/asm/mmzone_64.h"
	.file 111 "/home/chen/Serverless-LegoOS/kernel-3.11/arch/x86/include/asm/topology.h"
	.file 112 "/home/chen/Serverless-LegoOS/kernel-3.11/arch/x86/include/asm/numa.h"
	.file 113 "/home/chen/Serverless-LegoOS/kernel-3.11/arch/x86/include/asm/acpi.h"
	.file 114 "include/linux/topology.h"
	.file 115 "include/linux/slab.h"
	.file 116 "include/linux/highuid.h"
	.file 117 "/home/chen/Serverless-LegoOS/kernel-3.11/arch/x86/include/asm/irq_regs.h"
	.file 118 "include/linux/profile.h"
	.file 119 "include/linux/debug_locks.h"
	.file 120 "include/asm-generic/pgtable.h"
	.file 121 "include/linux/freezer.h"
	.file 122 "include/linux/lockdep.h"
	.section	.note.GNU-stack,"",@progbits
